; Function Attrs: mustprogress uwtable
define hidden noundef i64 @_ZN5osgeo4proj14FileApiAdapter4tellEv(ptr noundef nonnull readonly align 8 captures(none) dereferenceable(96) %0) unnamed_addr #0 align 2 {
  %2 = getelementptr inbounds nuw i8, ptr %0, i64 80
  %3 = load ptr, ptr %2, align 8, !tbaa !51
  %4 = getelementptr inbounds nuw i8, ptr %3, i64 256
  %5 = load ptr, ptr %4, align 8, !tbaa !84
  %6 = getelementptr inbounds nuw i8, ptr %0, i64 88
  %7 = load ptr, ptr %6, align 8, !tbaa !79
  %8 = getelementptr inbounds nuw i8, ptr %3, i64 304
  %9 = load ptr, ptr %8, align 8, !tbaa !80
  %10 = tail call noundef i64 %5(ptr noundef %3, ptr noundef %7, ptr noundef %9)
  ret i64 %10
}